target datalayout = "e-m:e-p270:32:32-p271:32:32-p272:64:64-i64:64-i128:128-f80:128-n8:16:32:64-S128"
target triple = "x86_64-pc-linux-gnu"

%struct._zval_struct = type { %union._zend_value, %union.anon, %union.anon.2 }
%union._zend_value = type { i64 }
%union.anon = type { i32 }
%union.anon.2 = type { i32 }
%struct._zend_array = type { %struct._zend_refcounted_h, %union.anon.4, i32, %union.anon.6, i32, i32, i32, i32, i64, ptr }
%struct._zend_refcounted_h = type { i32, %union.anon.3 }
%union.anon.3 = type { i32 }
%union.anon.4 = type { i32 }
%union.anon.6 = type { ptr }
%struct._php_random_algo = type { i64, ptr, ptr, ptr, ptr }
%struct._zend_object_handlers = type { i32, ptr, ptr, ptr, ptr, ptr, ptr, ptr, ptr, ptr, ptr, ptr, ptr, ptr, ptr, ptr, ptr, ptr, ptr, ptr, ptr, ptr, ptr, ptr, ptr }
%struct._php_random_algo_with_state = type { ptr, ptr }
%struct._zend_class_entry = type { i8, ptr, %union.anon.8, i32, i32, i32, i32, ptr, ptr, ptr, %struct._zend_array, %struct._zend_array, %struct._zend_array, ptr, ptr, ptr, ptr, ptr, ptr, ptr, ptr, ptr, ptr, ptr, ptr, ptr, ptr, ptr, ptr, ptr, ptr, ptr, %union.anon.9, ptr, ptr, ptr, ptr, i32, i32, %union.anon.10, ptr, ptr, ptr, ptr, i32, ptr, ptr, %union.anon.11 }
%union.anon.8 = type { ptr }
%union.anon.9 = type { ptr }
%union.anon.10 = type { ptr }
%union.anon.11 = type { %struct.anon.12 }
%struct.anon.12 = type { ptr, i32, i32 }
%struct._php_random_engine = type { %struct._php_random_algo_with_state, %struct._zend_object }
%struct._zend_object = type { %struct._zend_refcounted_h, i32, ptr, ptr, ptr, [1 x %struct._zval_struct] }

@random_engine_secure_object_handlers = internal global %struct._zend_object_handlers zeroinitializer, align 8
@php_random_algo_secure = external constant %struct._php_random_algo, align 8

; Function Attrs: nounwind uwtable
define ptr @php_random_status_alloc(ptr noundef %0, i1 noundef zeroext %1) #0 {
  %3 = alloca ptr, align 8
  %4 = alloca i8, align 1
  store ptr %0, ptr %3, align 8
  %5 = zext i1 %1 to i8
  store i8 %5, ptr %4, align 1
  %6 = load ptr, ptr %3, align 8
  %7 = getelementptr inbounds %struct._php_random_algo, ptr %6, i32 0, i32 0
  %8 = load i64, ptr %7, align 8
  %9 = icmp ugt i64 %8, 0
  br i1 %9, label %10, label %25

10:                                               ; preds = %2
  %11 = load i8, ptr %4, align 1
  %12 = trunc i8 %11 to i1
  br i1 %12, label %13, label %18

13:                                               ; preds = %10
  %14 = load ptr, ptr %3, align 8
  %15 = getelementptr inbounds %struct._php_random_algo, ptr %14, i32 0, i32 0
  %16 = load i64, ptr %15, align 8
  %17 = call noalias ptr @__zend_calloc(i64 noundef 1, i64 noundef %16) #9
  br label %23

18:                                               ; preds = %10
  %19 = load ptr, ptr %3, align 8
  %20 = getelementptr inbounds %struct._php_random_algo, ptr %19, i32 0, i32 0
  %21 = load i64, ptr %20, align 8
  %22 = call noalias ptr @_ecalloc(i64 noundef 1, i64 noundef %21) #9
  br label %23

23:                                               ; preds = %18, %13
  %24 = phi ptr [ %17, %13 ], [ %22, %18 ]
  br label %26

25:                                               ; preds = %2
  br label %26

26:                                               ; preds = %25, %23
  %27 = phi ptr [ %24, %23 ], [ null, %25 ]
  ret ptr %27
}

; Function Attrs: nounwind uwtable
define ptr @php_random_engine_common_init(ptr noundef %0, ptr noundef %1, ptr noundef %2) #0 {
  %4 = alloca ptr, align 8
  %5 = alloca i64, align 8
  %6 = alloca ptr, align 8
  %7 = alloca ptr, align 8
  %8 = alloca ptr, align 8
  %9 = alloca ptr, align 8
  %10 = alloca ptr, align 8
  %11 = alloca ptr, align 8
  %12 = alloca %struct._php_random_algo_with_state, align 8
  store ptr %0, ptr %8, align 8
  store ptr %1, ptr %9, align 8
  store ptr %2, ptr %10, align 8
  %13 = load ptr, ptr %8, align 8
  store i64 72, ptr %5, align 8
  store ptr %13, ptr %6, align 8
  %14 = load i64, ptr %5, align 8
  %15 = load ptr, ptr %6, align 8
  store ptr %15, ptr %4, align 8
  %16 = load ptr, ptr %4, align 8
  %17 = getelementptr inbounds %struct._zend_class_entry, ptr %16, i32 0, i32 5
  %18 = load i32, ptr %17, align 8
  %19 = load ptr, ptr %4, align 8
  %20 = getelementptr inbounds %struct._zend_class_entry, ptr %19, i32 0, i32 4
  %21 = load i32, ptr %20, align 4
  %22 = and i32 %21, 2048
  %23 = icmp ne i32 %22, 0
  %24 = select i1 %23, i32 0, i32 1
  %25 = sub nsw i32 %18, %24
  %26 = sext i32 %25 to i64
  %27 = mul i64 16, %26
  %28 = add i64 %14, %27
  %29 = call noalias ptr @_emalloc(i64 noundef %28) #11
  store ptr %29, ptr %7, align 8
  %30 = load ptr, ptr %7, align 8
  %31 = load i64, ptr %5, align 8
  %32 = sub i64 %31, 56
  call void @llvm.memset.p0.i64(ptr align 1 %30, i8 0, i64 %32, i1 false)
  %33 = load ptr, ptr %7, align 8
  store ptr %33, ptr %11, align 8
  %34 = load ptr, ptr %11, align 8
  %35 = getelementptr inbounds %struct._php_random_engine, ptr %34, i32 0, i32 1
  %36 = load ptr, ptr %8, align 8
  call void @zend_object_std_init(ptr noundef %35, ptr noundef %36)
  %37 = load ptr, ptr %11, align 8
  %38 = getelementptr inbounds %struct._php_random_engine, ptr %37, i32 0, i32 1
  %39 = load ptr, ptr %8, align 8
  call void @object_properties_init(ptr noundef %38, ptr noundef %39)
  %40 = load ptr, ptr %11, align 8
  %41 = getelementptr inbounds %struct._php_random_engine, ptr %40, i32 0, i32 0
  %42 = getelementptr inbounds %struct._php_random_algo_with_state, ptr %12, i32 0, i32 0
  %43 = load ptr, ptr %10, align 8
  store ptr %43, ptr %42, align 8
  %44 = getelementptr inbounds %struct._php_random_algo_with_state, ptr %12, i32 0, i32 1
  %45 = load ptr, ptr %10, align 8
  %46 = call ptr @php_random_status_alloc(ptr noundef %45, i1 noundef zeroext false)
  store ptr %46, ptr %44, align 8
  call void @llvm.memcpy.p0.p0.i64(ptr align 8 %41, ptr align 8 %12, i64 16, i1 false)
  %47 = load ptr, ptr %9, align 8
  %48 = load ptr, ptr %11, align 8
  %49 = getelementptr inbounds %struct._php_random_engine, ptr %48, i32 0, i32 1
  %50 = getelementptr inbounds %struct._zend_object, ptr %49, i32 0, i32 3
  store ptr %47, ptr %50, align 8
  %51 = load ptr, ptr %11, align 8
  ret ptr %51
}

; Function Attrs: nounwind uwtable
define internal ptr @php_random_engine_secure_new(ptr noundef %0) #0 {
  %2 = alloca ptr, align 8
  store ptr %0, ptr %2, align 8
  %3 = load ptr, ptr %2, align 8
  %4 = call ptr @php_random_engine_common_init(ptr noundef %3, ptr noundef @random_engine_secure_object_handlers, ptr noundef @php_random_algo_secure)
  %5 = getelementptr inbounds %struct._php_random_engine, ptr %4, i32 0, i32 1
  ret ptr %5
}